target datalayout = "e-m:e-p270:32:32-p271:32:32-p272:64:64-i64:64-i128:128-f80:128-n8:16:32:64-S128"
target triple = "x86_64-pc-linux-gnu"

%struct.nstime_t = type { i64, i32 }
%struct._packet_info = type { ptr, ptr, i32, i32, %struct.nstime_t, %struct.nstime_t, %struct.nstime_t, i8, ptr, ptr, ptr, ptr, %struct._address, %struct._address, %struct._address, %struct._address, %struct._address, %struct._address, i32, ptr, i8, [3 x i8], %struct.anon.1, i32, i32, i32, i32, ptr, i8, ptr, ptr, i16, i16, i32, i32, i16, i32, i32, ptr, ptr, ptr, i8, i8, i16, i16, i16, i32, i16, i16, ptr, ptr, ptr, ptr, ptr, i32, i32 }
%struct._address = type { i32, i32, ptr, ptr }
%struct.anon.1 = type { i8, [3 x i8] }
%struct._e_guid_t = type { i32, i16, i16, [8 x i8] }
%struct._asn1_ctx_t = type { i32, i32, i8, ptr, ptr, ptr, ptr, ptr, %struct.anon.2, %struct.anon.5, %struct.anon.6, ptr }
%struct.anon.2 = type { i32, i8, i8, i8, ptr, ptr, i32, i32, ptr, ptr, ptr, %union.anon }
%union.anon = type { %struct.anon.3 }
%struct.anon.3 = type { ptr }
%struct.anon.5 = type { ptr, ptr, ptr }
%struct.anon.6 = type { i32, i8, ptr, i32, i32, ptr, ptr, ptr, %union.anon.7 }
%union.anon.7 = type { %struct.anon.8 }
%struct.anon.8 = type { ptr }

@hf_mscldap_ntver_flags = internal global i32 0, align 4
@hf_ldap_guid = internal global i32 0, align 4
@ett_mscldap_ntver_flags = internal global i32 0, align 4
@ldapvalue_string = internal global ptr null, align 8
@attributedesc_string = internal global ptr null, align 8
@.str.903 = private unnamed_addr constant [10 x i8] c"DomainSid\00", align 1
@.str.904 = private unnamed_addr constant [4 x i8] c"SID\00", align 1
@.str.905 = private unnamed_addr constant [11 x i8] c"DomainGuid\00", align 1
@__const.dissect_ldap_AssertionValue.drep = private unnamed_addr constant [4 x i8] c"\10\00\00\00", align 1
@.str.906 = private unnamed_addr constant [49 x i8] c"%08x-%04x-%04x-%02x%02x-%02x%02x%02x%02x%02x%02x\00", align 1
@.str.907 = private unnamed_addr constant [6 x i8] c"NtVer\00", align 1
@.str.908 = private unnamed_addr constant [7 x i8] c"0x%08x\00", align 1

; Function Attrs: null_pointer_is_valid sspstrong uwtable
define internal i32 @dissect_mscldap_ntver_flags(ptr noundef %0, ptr noundef %1, i32 noundef %2) #0 {
  %4 = alloca ptr, align 8
  %5 = alloca ptr, align 8
  %6 = alloca i32, align 4
  store ptr %0, ptr %4, align 8
  store ptr %1, ptr %5, align 8
  store i32 %2, ptr %6, align 4
  %7 = load ptr, ptr %4, align 8
  %8 = load ptr, ptr %5, align 8
  %9 = load i32, ptr %6, align 4
  %10 = load i32, ptr @hf_mscldap_ntver_flags, align 4
  %11 = load i32, ptr @ett_mscldap_ntver_flags, align 4
  %12 = call ptr @proto_tree_add_bitmask_with_flags(ptr noundef %7, ptr noundef %8, i32 noundef %9, i32 noundef %10, i32 noundef %11, ptr noundef @dissect_mscldap_ntver_flags.flags, i32 noundef -2147483648, i32 noundef 4)
  %13 = load i32, ptr %6, align 4
  %14 = add i32 %13, 4
  store i32 %14, ptr %6, align 4
  %15 = load i32, ptr %6, align 4
  ret i32 %15
}

; Function Attrs: null_pointer_is_valid sspstrong uwtable
define internal i32 @dissect_ldap_AssertionValue(i1 noundef zeroext %0, ptr noundef %1, i32 noundef %2, ptr noundef %3, ptr noundef %4, i32 noundef %5) #0 {
  %7 = alloca i32, align 4
  %8 = alloca i8, align 1
  %9 = alloca ptr, align 8
  %10 = alloca i32, align 4
  %11 = alloca ptr, align 8
  %12 = alloca ptr, align 8
  %13 = alloca i32, align 4
  %14 = alloca i8, align 1
  %15 = alloca i8, align 1
  %16 = alloca i8, align 1
  %17 = alloca i8, align 1
  %18 = alloca i32, align 4
  %19 = alloca i32, align 4
  %20 = alloca i32, align 4
  %21 = alloca ptr, align 8
  %22 = alloca ptr, align 8
  %23 = alloca [4 x i8], align 1
  %24 = alloca %struct._e_guid_t, align 4
  %25 = alloca i32, align 4
  %26 = zext i1 %0 to i8
  store i8 %26, ptr %8, align 1
  store ptr %1, ptr %9, align 8
  store i32 %2, ptr %10, align 4
  store ptr %3, ptr %11, align 8
  store ptr %4, ptr %12, align 8
  store i32 %5, ptr %13, align 4
  call void @llvm.lifetime.start.p0(i64 1, ptr %14) #16
  call void @llvm.lifetime.start.p0(i64 1, ptr %15) #16
  call void @llvm.lifetime.start.p0(i64 1, ptr %16) #16
  call void @llvm.lifetime.start.p0(i64 1, ptr %17) #16
  call void @llvm.lifetime.start.p0(i64 4, ptr %18) #16
  call void @llvm.lifetime.start.p0(i64 4, ptr %19) #16
  %27 = load i8, ptr %8, align 1, !range !6, !noundef !7
  %28 = trunc i8 %27 to i1
  br i1 %28, label %36, label %29

29:                                               ; preds = %6
  %30 = load ptr, ptr %9, align 8
  %31 = load i32, ptr %10, align 4
  %32 = call i32 @get_ber_identifier(ptr noundef %30, i32 noundef %31, ptr noundef %14, ptr noundef %15, ptr noundef %18)
  store i32 %32, ptr %10, align 4
  %33 = load ptr, ptr %9, align 8
  %34 = load i32, ptr %10, align 4
  %35 = call i32 @get_ber_length(ptr noundef %33, i32 noundef %34, ptr noundef %19, ptr noundef %16)
  store i32 %35, ptr %10, align 4
  br label %40

36:                                               ; preds = %6
  %37 = load ptr, ptr %9, align 8
  %38 = load i32, ptr %10, align 4
  %39 = call i32 @tvb_reported_length_remaining(ptr noundef %37, i32 noundef %38)
  store i32 %39, ptr %19, align 4
  br label %40

40:                                               ; preds = %36, %29
  %41 = load i32, ptr %19, align 4
  %42 = icmp eq i32 %41, 0
  br i1 %42, label %43, label %45

43:                                               ; preds = %40
  %44 = load i32, ptr %10, align 4
  store i32 %44, ptr %7, align 4
  store i32 1, ptr %20, align 4
  br label %204

45:                                               ; preds = %40
  %46 = load ptr, ptr @attributedesc_string, align 8
  %47 = icmp ne ptr %46, null
  br i1 %47, label %48, label %63

48:                                               ; preds = %45
  %49 = load ptr, ptr @attributedesc_string, align 8
  %50 = call i32 @strncmp(ptr noundef @.str.903, ptr noundef %49, i64 noundef 9) #17
  %51 = icmp ne i32 %50, 0
  br i1 %51, label %63, label %52

52:                                               ; preds = %48
  call void @llvm.lifetime.start.p0(i64 8, ptr %21) #16
  call void @llvm.lifetime.start.p0(i64 8, ptr %22) #16
  %53 = load ptr, ptr %9, align 8
  %54 = load i32, ptr %10, align 4
  %55 = load i32, ptr %19, align 4
  %56 = call ptr @tvb_new_subset_length(ptr noundef %53, i32 noundef %54, i32 noundef %55)
  store ptr %56, ptr %21, align 8
  %57 = load ptr, ptr %21, align 8
  %58 = load ptr, ptr %12, align 8
  %59 = load i32, ptr %13, align 4
  %60 = call i32 @dissect_nt_sid(ptr noundef %57, i32 noundef 0, ptr noundef %58, ptr noundef @.str.904, ptr noundef %22, i32 noundef %59)
  %61 = load ptr, ptr %22, align 8
  store ptr %61, ptr @ldapvalue_string, align 8
  store i32 2, ptr %20, align 4
  call void @llvm.lifetime.end.p0(i64 8, ptr %22) #16
  call void @llvm.lifetime.end.p0(i64 8, ptr %21) #16
  %62 = load i32, ptr %20, align 4
  switch i32 %62, label %204 [
    i32 2, label %199
  ]

63:                                               ; preds = %48, %45
  %64 = load i32, ptr %19, align 4
  %65 = icmp eq i32 %64, 16
  br i1 %65, label %66, label %134

66:                                               ; preds = %63
  %67 = load ptr, ptr @attributedesc_string, align 8
  %68 = icmp ne ptr %67, null
  br i1 %68, label %69, label %134

69:                                               ; preds = %66
  %70 = load ptr, ptr @attributedesc_string, align 8
  %71 = call i32 @strncmp(ptr noundef @.str.905, ptr noundef %70, i64 noundef 10) #17
  %72 = icmp ne i32 %71, 0
  br i1 %72, label %134, label %73

73:                                               ; preds = %69
  call void @llvm.lifetime.start.p0(i64 4, ptr %23) #16
  call void @llvm.memcpy.p0.p0.i64(ptr align 1 %23, ptr align 1 @__const.dissect_ldap_AssertionValue.drep, i64 4, i1 false)
  call void @llvm.lifetime.start.p0(i64 16, ptr %24) #16
  %74 = load ptr, ptr %9, align 8
  %75 = load i32, ptr %10, align 4
  %76 = load ptr, ptr %11, align 8
  %77 = getelementptr inbounds nuw %struct._asn1_ctx_t, ptr %76, i32 0, i32 3
  %78 = load ptr, ptr %77, align 8
  %79 = load ptr, ptr %12, align 8
  %80 = getelementptr inbounds [4 x i8], ptr %23, i64 0, i64 0
  %81 = load i32, ptr @hf_ldap_guid, align 4
  %82 = call i32 @dissect_dcerpc_uuid_t(ptr noundef %74, i32 noundef %75, ptr noundef %78, ptr noundef %79, ptr noundef %80, i32 noundef %81, ptr noundef %24)
  %83 = load ptr, ptr %11, align 8
  %84 = getelementptr inbounds nuw %struct._asn1_ctx_t, ptr %83, i32 0, i32 3
  %85 = load ptr, ptr %84, align 8
  %86 = getelementptr inbounds nuw %struct._packet_info, ptr %85, i32 0, i32 51
  %87 = load ptr, ptr %86, align 8
  %88 = call noalias ptr @wmem_alloc(ptr noundef %87, i64 noundef 1024) #20
  store ptr %88, ptr @ldapvalue_string, align 8
  %89 = load ptr, ptr @ldapvalue_string, align 8
  %90 = load ptr, ptr @ldapvalue_string, align 8
  %91 = call i64 @llvm.objectsize.i64.p0(ptr %90, i1 false, i1 true, i1 true)
  %92 = getelementptr inbounds nuw %struct._e_guid_t, ptr %24, i32 0, i32 0
  %93 = load i32, ptr %92, align 4
  %94 = getelementptr inbounds nuw %struct._e_guid_t, ptr %24, i32 0, i32 1
  %95 = load i16, ptr %94, align 4
  %96 = zext i16 %95 to i32
  %97 = getelementptr inbounds nuw %struct._e_guid_t, ptr %24, i32 0, i32 2
  %98 = load i16, ptr %97, align 2
  %99 = zext i16 %98 to i32
  %100 = getelementptr inbounds nuw %struct._e_guid_t, ptr %24, i32 0, i32 3
  %101 = getelementptr [8 x i8], ptr %100, i64 0, i64 0
  %102 = load i8, ptr %101, align 4
  %103 = zext i8 %102 to i32
  %104 = getelementptr inbounds nuw %struct._e_guid_t, ptr %24, i32 0, i32 3
  %105 = getelementptr [8 x i8], ptr %104, i64 0, i64 1
  %106 = load i8, ptr %105, align 1
  %107 = zext i8 %106 to i32
  %108 = getelementptr inbounds nuw %struct._e_guid_t, ptr %24, i32 0, i32 3
  %109 = getelementptr [8 x i8], ptr %108, i64 0, i64 2
  %110 = load i8, ptr %109, align 2
  %111 = zext i8 %110 to i32
  %112 = getelementptr inbounds nuw %struct._e_guid_t, ptr %24, i32 0, i32 3
  %113 = getelementptr [8 x i8], ptr %112, i64 0, i64 3
  %114 = load i8, ptr %113, align 1
  %115 = zext i8 %114 to i32
  %116 = getelementptr inbounds nuw %struct._e_guid_t, ptr %24, i32 0, i32 3
  %117 = getelementptr [8 x i8], ptr %116, i64 0, i64 4
  %118 = load i8, ptr %117, align 4
  %119 = zext i8 %118 to i32
  %120 = getelementptr inbounds nuw %struct._e_guid_t, ptr %24, i32 0, i32 3
  %121 = getelementptr [8 x i8], ptr %120, i64 0, i64 5
  %122 = load i8, ptr %121, align 1
  %123 = zext i8 %122 to i32
  %124 = getelementptr inbounds nuw %struct._e_guid_t, ptr %24, i32 0, i32 3
  %125 = getelementptr [8 x i8], ptr %124, i64 0, i64 6
  %126 = load i8, ptr %125, align 2
  %127 = zext i8 %126 to i32
  %128 = getelementptr inbounds nuw %struct._e_guid_t, ptr %24, i32 0, i32 3
  %129 = getelementptr [8 x i8], ptr %128, i64 0, i64 7
  %130 = load i8, ptr %129, align 1
  %131 = zext i8 %130 to i32
  %132 = call i32 (ptr, i64, i32, i64, ptr, ...) @__snprintf_chk(ptr noundef %89, i64 noundef 1023, i32 noundef 2, i64 noundef %91, ptr noundef @.str.906, i32 noundef %93, i32 noundef %96, i32 noundef %99, i32 noundef %103, i32 noundef %107, i32 noundef %111, i32 noundef %115, i32 noundef %119, i32 noundef %123, i32 noundef %127, i32 noundef %131)
  store i32 2, ptr %20, align 4
  call void @llvm.lifetime.end.p0(i64 16, ptr %24) #16
  call void @llvm.lifetime.end.p0(i64 4, ptr %23) #16
  %133 = load i32, ptr %20, align 4
  switch i32 %133, label %204 [
    i32 2, label %199
  ]

134:                                              ; preds = %69, %66, %63
  %135 = load ptr, ptr @attributedesc_string, align 8
  %136 = icmp ne ptr %135, null
  br i1 %136, label %137, label %161

137:                                              ; preds = %134
  %138 = load ptr, ptr @attributedesc_string, align 8
  %139 = call i32 @strncmp(ptr noundef @.str.907, ptr noundef %138, i64 noundef 5) #17
  %140 = icmp ne i32 %139, 0
  br i1 %140, label %161, label %141

141:                                              ; preds = %137
  call void @llvm.lifetime.start.p0(i64 4, ptr %25) #16
  store i32 0, ptr %19, align 4
  %142 = load ptr, ptr %9, align 8
  %143 = load i32, ptr %10, align 4
  %144 = call i32 @tvb_get_letohl(ptr noundef %142, i32 noundef %143)
  store i32 %144, ptr %25, align 4
  %145 = load ptr, ptr %11, align 8
  %146 = getelementptr inbounds nuw %struct._asn1_ctx_t, ptr %145, i32 0, i32 3
  %147 = load ptr, ptr %146, align 8
  %148 = getelementptr inbounds nuw %struct._packet_info, ptr %147, i32 0, i32 51
  %149 = load ptr, ptr %148, align 8
  %150 = call noalias ptr @wmem_alloc(ptr noundef %149, i64 noundef 1024) #20
  store ptr %150, ptr @ldapvalue_string, align 8
  %151 = load ptr, ptr @ldapvalue_string, align 8
  %152 = load ptr, ptr @ldapvalue_string, align 8
  %153 = call i64 @llvm.objectsize.i64.p0(ptr %152, i1 false, i1 true, i1 true)
  %154 = load i32, ptr %25, align 4
  %155 = call i32 (ptr, i64, i32, i64, ptr, ...) @__snprintf_chk(ptr noundef %151, i64 noundef 1023, i32 noundef 2, i64 noundef %153, ptr noundef @.str.908, i32 noundef %154)
  %156 = load ptr, ptr %12, align 8
  %157 = load ptr, ptr %9, align 8
  %158 = load i32, ptr %10, align 4
  %159 = call i32 @dissect_mscldap_ntver_flags(ptr noundef %156, ptr noundef %157, i32 noundef %158)
  store i32 %159, ptr %10, align 4
  store i32 2, ptr %20, align 4
  call void @llvm.lifetime.end.p0(i64 4, ptr %25) #16
  %160 = load i32, ptr %20, align 4
  switch i32 %160, label %204 [
    i32 2, label %199
  ]

161:                                              ; preds = %137, %134
  br label %162

162:                                              ; preds = %161
  br label %163

163:                                              ; preds = %162
  %164 = load ptr, ptr %9, align 8
  %165 = load i32, ptr %10, align 4
  %166 = load i32, ptr %19, align 4
  %167 = call zeroext i1 @tvb_ascii_isprint(ptr noundef %164, i32 noundef %165, i32 noundef %166)
  %168 = zext i1 %167 to i8
  store i8 %168, ptr %17, align 1
  %169 = load i8, ptr %17, align 1, !range !6, !noundef !7
  %170 = trunc i8 %169 to i1
  br i1 %170, label %171, label %181

171:                                              ; preds = %163
  %172 = load ptr, ptr %11, align 8
  %173 = getelementptr inbounds nuw %struct._asn1_ctx_t, ptr %172, i32 0, i32 3
  %174 = load ptr, ptr %173, align 8
  %175 = getelementptr inbounds nuw %struct._packet_info, ptr %174, i32 0, i32 51
  %176 = load ptr, ptr %175, align 8
  %177 = load ptr, ptr %9, align 8
  %178 = load i32, ptr %10, align 4
  %179 = load i32, ptr %19, align 4
  %180 = call ptr @tvb_get_string_enc(ptr noundef %176, ptr noundef %177, i32 noundef %178, i32 noundef %179, i32 noundef 2)
  store ptr %180, ptr @ldapvalue_string, align 8
  br label %191

181:                                              ; preds = %163
  %182 = load ptr, ptr %11, align 8
  %183 = getelementptr inbounds nuw %struct._asn1_ctx_t, ptr %182, i32 0, i32 3
  %184 = load ptr, ptr %183, align 8
  %185 = getelementptr inbounds nuw %struct._packet_info, ptr %184, i32 0, i32 51
  %186 = load ptr, ptr %185, align 8
  %187 = load ptr, ptr %9, align 8
  %188 = load i32, ptr %10, align 4
  %189 = load i32, ptr %19, align 4
  %190 = call ptr @tvb_bytes_to_str_punct(ptr noundef %186, ptr noundef %187, i32 noundef %188, i32 noundef %189, i8 noundef signext 58)
  store ptr %190, ptr @ldapvalue_string, align 8
  br label %191

191:                                              ; preds = %181, %171
  %192 = load ptr, ptr %12, align 8
  %193 = load i32, ptr %13, align 4
  %194 = load ptr, ptr %9, align 8
  %195 = load i32, ptr %10, align 4
  %196 = load i32, ptr %19, align 4
  %197 = load ptr, ptr @ldapvalue_string, align 8
  %198 = call ptr @proto_tree_add_string(ptr noundef %192, i32 noundef %193, ptr noundef %194, i32 noundef %195, i32 noundef %196, ptr noundef %197)
  br label %199

199:                                              ; preds = %191, %141, %73, %52
  %200 = load i32, ptr %19, align 4
  %201 = load i32, ptr %10, align 4
  %202 = add i32 %201, %200
  store i32 %202, ptr %10, align 4
  %203 = load i32, ptr %10, align 4
  store i32 %203, ptr %7, align 4
  store i32 1, ptr %20, align 4
  br label %204

204:                                              ; preds = %199, %141, %73, %52, %43
  call void @llvm.lifetime.end.p0(i64 4, ptr %19) #16
  call void @llvm.lifetime.end.p0(i64 4, ptr %18) #16
  call void @llvm.lifetime.end.p0(i64 1, ptr %17) #16
  call void @llvm.lifetime.end.p0(i64 1, ptr %16) #16
  call void @llvm.lifetime.end.p0(i64 1, ptr %15) #16
  call void @llvm.lifetime.end.p0(i64 1, ptr %14) #16
  %205 = load i32, ptr %7, align 4
  ret i32 %205
}