; Function Attrs: null_pointer_is_valid sspstrong uwtable
define internal i32 @dissect_ldap_AssertionValue(i1 noundef zeroext %0, ptr noundef %1, i32 noundef %2, ptr noundef readonly captures(none) %3, ptr noundef %4, i32 noundef %5) #0 {
  %7 = alloca i8, align 1
  %8 = alloca i8, align 1
  %9 = alloca i8, align 1
  %10 = alloca i32, align 4
  %11 = alloca i32, align 4
  %12 = alloca ptr, align 8
  %13 = alloca [4 x i8], align 4
  %14 = alloca %struct._e_guid_t, align 4
  call void @llvm.lifetime.start.p0(i64 1, ptr nonnull %7) #14
  call void @llvm.lifetime.start.p0(i64 1, ptr nonnull %8) #14
  call void @llvm.lifetime.start.p0(i64 1, ptr nonnull %9) #14
  call void @llvm.lifetime.start.p0(i64 4, ptr nonnull %10) #14
  call void @llvm.lifetime.start.p0(i64 4, ptr nonnull %11) #14
  br i1 %0, label %18, label %15

15:                                               ; preds = %6
  %16 = call i32 @get_ber_identifier(ptr noundef %1, i32 noundef %2, ptr noundef nonnull %7, ptr noundef nonnull %8, ptr noundef nonnull %10)
  %17 = call i32 @get_ber_length(ptr noundef %1, i32 noundef %16, ptr noundef nonnull %11, ptr noundef nonnull %9)
  %.pr = load i32, ptr %11, align 4
  br label %20

18:                                               ; preds = %6
  %19 = tail call i32 @tvb_reported_length_remaining(ptr noundef %1, i32 noundef %2)
  store i32 %19, ptr %11, align 4
  br label %20

20:                                               ; preds = %18, %15
  %21 = phi i32 [ %19, %18 ], [ %.pr, %15 ]
  %.046 = phi i32 [ %2, %18 ], [ %17, %15 ]
  %22 = icmp eq i32 %21, 0
  br i1 %22, label %107, label %23

23:                                               ; preds = %20
  %24 = load ptr, ptr @attributedesc_string, align 8
  %.not = icmp eq ptr %24, null
  br i1 %.not, label %90, label %25

25:                                               ; preds = %23
  %26 = call i32 @strncmp(ptr noundef nonnull dereferenceable(10) @.str.903, ptr noundef nonnull dereferenceable(1) %24, i64 noundef 9) #15
  %.not50 = icmp eq i32 %26, 0
  br i1 %.not50, label %27, label %31

27:                                               ; preds = %25
  call void @llvm.lifetime.start.p0(i64 8, ptr nonnull %12) #14
  %28 = call ptr @tvb_new_subset_length(ptr noundef %1, i32 noundef %.046, i32 noundef %21)
  %29 = call i32 @dissect_nt_sid(ptr noundef %28, i32 noundef 0, ptr noundef %4, ptr noundef nonnull @.str.904, ptr noundef nonnull %12, i32 noundef %5)
  %30 = load ptr, ptr %12, align 8
  store ptr %30, ptr @ldapvalue_string, align 8
  call void @llvm.lifetime.end.p0(i64 8, ptr nonnull %12) #14
  br label %104

31:                                               ; preds = %25
  %32 = icmp eq i32 %21, 16
  br i1 %32, label %33, label %76

33:                                               ; preds = %31
  %34 = call i32 @strncmp(ptr noundef nonnull dereferenceable(11) @.str.905, ptr noundef nonnull dereferenceable(1) %24, i64 noundef 10) #15
  %.not51 = icmp eq i32 %34, 0
  br i1 %.not51, label %35, label %76

35:                                               ; preds = %33
  call void @llvm.lifetime.start.p0(i64 4, ptr nonnull %13) #14
  store i32 16, ptr %13, align 4
  call void @llvm.lifetime.start.p0(i64 16, ptr nonnull %14) #14
  %36 = getelementptr inbounds nuw i8, ptr %3, i64 16
  %37 = load ptr, ptr %36, align 8
  %38 = load i32, ptr @hf_ldap_guid, align 4
  %39 = call i32 @dissect_dcerpc_uuid_t(ptr noundef %1, i32 noundef %.046, ptr noundef %37, ptr noundef %4, ptr noundef nonnull %13, i32 noundef %38, ptr noundef nonnull %14)
  %40 = load ptr, ptr %36, align 8
  %41 = getelementptr inbounds nuw i8, ptr %40, i64 408
  %42 = load ptr, ptr %41, align 8
  %43 = call noalias dereferenceable_or_null(1024) ptr @wmem_alloc(ptr noundef %42, i64 noundef 1024) #18
  store ptr %43, ptr @ldapvalue_string, align 8
  %44 = load i32, ptr %14, align 4
  %45 = getelementptr inbounds nuw i8, ptr %14, i64 4
  %46 = load i16, ptr %45, align 4
  %47 = zext i16 %46 to i32
  %48 = getelementptr inbounds nuw i8, ptr %14, i64 6
  %49 = load i16, ptr %48, align 2
  %50 = zext i16 %49 to i32
  %51 = getelementptr inbounds nuw i8, ptr %14, i64 8
  %52 = load i8, ptr %51, align 4
  %53 = zext i8 %52 to i32
  %54 = getelementptr inbounds nuw i8, ptr %14, i64 9
  %55 = load i8, ptr %54, align 1
  %56 = zext i8 %55 to i32
  %57 = getelementptr inbounds nuw i8, ptr %14, i64 10
  %58 = load i8, ptr %57, align 2
  %59 = zext i8 %58 to i32
  %60 = getelementptr inbounds nuw i8, ptr %14, i64 11
  %61 = load i8, ptr %60, align 1
  %62 = zext i8 %61 to i32
  %63 = getelementptr inbounds nuw i8, ptr %14, i64 12
  %64 = load i8, ptr %63, align 4
  %65 = zext i8 %64 to i32
  %66 = getelementptr inbounds nuw i8, ptr %14, i64 13
  %67 = load i8, ptr %66, align 1
  %68 = zext i8 %67 to i32
  %69 = getelementptr inbounds nuw i8, ptr %14, i64 14
  %70 = load i8, ptr %69, align 2
  %71 = zext i8 %70 to i32
  %72 = getelementptr inbounds nuw i8, ptr %14, i64 15
  %73 = load i8, ptr %72, align 1
  %74 = zext i8 %73 to i32
  %75 = call i32 (ptr, i64, i32, i64, ptr, ...) @__snprintf_chk(ptr noundef %43, i64 noundef 1023, i32 noundef 2, i64 noundef 1024, ptr noundef nonnull @.str.906, i32 noundef %44, i32 noundef %47, i32 noundef %50, i32 noundef %53, i32 noundef %56, i32 noundef %59, i32 noundef %62, i32 noundef %65, i32 noundef %68, i32 noundef %71, i32 noundef %74)
  call void @llvm.lifetime.end.p0(i64 16, ptr nonnull %14) #14
  call void @llvm.lifetime.end.p0(i64 4, ptr nonnull %13) #14
  br label %104

76:                                               ; preds = %33, %31
  %77 = call i32 @strncmp(ptr noundef nonnull dereferenceable(6) @.str.907, ptr noundef nonnull dereferenceable(1) %24, i64 noundef 5) #15
  %.not53 = icmp eq i32 %77, 0
  br i1 %.not53, label %78, label %90

78:                                               ; preds = %76
  store i32 0, ptr %11, align 4
  %79 = call i32 @tvb_get_letohl(ptr noundef %1, i32 noundef %.046)
  %80 = getelementptr inbounds nuw i8, ptr %3, i64 16
  %81 = load ptr, ptr %80, align 8
  %82 = getelementptr inbounds nuw i8, ptr %81, i64 408
  %83 = load ptr, ptr %82, align 8
  %84 = call noalias dereferenceable_or_null(1024) ptr @wmem_alloc(ptr noundef %83, i64 noundef 1024) #18
  store ptr %84, ptr @ldapvalue_string, align 8
  %85 = call i32 (ptr, i64, i32, i64, ptr, ...) @__snprintf_chk(ptr noundef %84, i64 noundef 1023, i32 noundef 2, i64 noundef 1024, ptr noundef nonnull @.str.908, i32 noundef %79)
  %86 = load i32, ptr @hf_mscldap_ntver_flags, align 4
  %87 = load i32, ptr @ett_mscldap_ntver_flags, align 4
  %88 = call ptr @proto_tree_add_bitmask_with_flags(ptr noundef %4, ptr noundef %1, i32 noundef %.046, i32 noundef %86, i32 noundef %87, ptr noundef nonnull @dissect_mscldap_ntver_flags.flags, i32 noundef -2147483648, i32 noundef 4)
  %89 = add i32 %.046, 4
  br label %104

90:                                               ; preds = %23, %76
  %91 = call zeroext i1 @tvb_ascii_isprint(ptr noundef %1, i32 noundef %.046, i32 noundef %21)
  %92 = getelementptr inbounds nuw i8, ptr %3, i64 16
  %93 = load ptr, ptr %92, align 8
  %94 = getelementptr inbounds nuw i8, ptr %93, i64 408
  %95 = load ptr, ptr %94, align 8
  %96 = load i32, ptr %11, align 4
  br i1 %91, label %97, label %99

97:                                               ; preds = %90
  %98 = call ptr @tvb_get_string_enc(ptr noundef %95, ptr noundef %1, i32 noundef %.046, i32 noundef %96, i32 noundef 2)
  br label %101

99:                                               ; preds = %90
  %100 = call ptr @tvb_bytes_to_str_punct(ptr noundef %95, ptr noundef %1, i32 noundef %.046, i32 noundef %96, i8 noundef signext 58)
  br label %101

101:                                              ; preds = %99, %97
  %storemerge = phi ptr [ %100, %99 ], [ %98, %97 ]
  store ptr %storemerge, ptr @ldapvalue_string, align 8
  %102 = load i32, ptr %11, align 4
  %103 = call ptr @proto_tree_add_string(ptr noundef %4, i32 noundef %5, ptr noundef %1, i32 noundef %.046, i32 noundef %102, ptr noundef %storemerge)
  br label %104

104:                                              ; preds = %78, %35, %27, %101
  %.1 = phi i32 [ %.046, %101 ], [ %89, %78 ], [ %.046, %35 ], [ %.046, %27 ]
  %105 = load i32, ptr %11, align 4
  %106 = add i32 %105, %.1
  br label %107

107:                                              ; preds = %20, %104
  %.0 = phi i32 [ %106, %104 ], [ %.046, %20 ]
  call void @llvm.lifetime.end.p0(i64 4, ptr nonnull %11) #14
  call void @llvm.lifetime.end.p0(i64 4, ptr nonnull %10) #14
  call void @llvm.lifetime.end.p0(i64 1, ptr nonnull %9) #14
  call void @llvm.lifetime.end.p0(i64 1, ptr nonnull %8) #14
  call void @llvm.lifetime.end.p0(i64 1, ptr nonnull %7) #14
  ret i32 %.0
}